target datalayout = "e-m:e-p270:32:32-p271:32:32-p272:64:64-i64:64-i128:128-f80:128-n8:16:32:64-S128"
target triple = "x86_64-pc-linux-gnu"

%struct.pmix_value = type { i16, %union.anon }
%union.anon = type { %struct.pmix_envar_t }
%struct.pmix_envar_t = type { ptr, ptr, i8 }

@.str.6 = private unnamed_addr constant [37 x i8] c"PMIX ERROR: %s in file %s at line %d\00", align 1
@.str.7 = private unnamed_addr constant [25 x i8] c"base/bfrop_base_unpack.c\00", align 1

; Function Attrs: nounwind uwtable
define i32 @pmix_bfrops_base_unpack_value(ptr noundef %0, ptr noundef %1, ptr noundef %2, ptr noundef %3, i16 noundef zeroext %4) #0 {
  %6 = alloca i32, align 4
  %7 = alloca ptr, align 8
  %8 = alloca ptr, align 8
  %9 = alloca ptr, align 8
  %10 = alloca ptr, align 8
  %11 = alloca i16, align 2
  %12 = alloca ptr, align 8
  %13 = alloca i32, align 4
  %14 = alloca i32, align 4
  %15 = alloca i32, align 4
  %16 = alloca i32, align 4
  store ptr %0, ptr %7, align 8, !tbaa !3
  store ptr %1, ptr %8, align 8, !tbaa !8
  store ptr %2, ptr %9, align 8, !tbaa !8
  store ptr %3, ptr %10, align 8, !tbaa !9
  store i16 %4, ptr %11, align 2, !tbaa !11
  call void @llvm.lifetime.start.p0(i64 8, ptr %12) #11
  call void @llvm.lifetime.start.p0(i64 4, ptr %13) #11
  call void @llvm.lifetime.start.p0(i64 4, ptr %14) #11
  call void @llvm.lifetime.start.p0(i64 4, ptr %15) #11
  %17 = load ptr, ptr %9, align 8, !tbaa !8
  store ptr %17, ptr %12, align 8, !tbaa !96
  %18 = load ptr, ptr %10, align 8, !tbaa !9
  %19 = load i32, ptr %18, align 4, !tbaa !13
  store i32 %19, ptr %14, align 4, !tbaa !13
  store i32 0, ptr %13, align 4, !tbaa !13
  br label %20

20:                                               ; preds = %66, %5
  %21 = load i32, ptr %13, align 4, !tbaa !13
  %22 = load i32, ptr %14, align 4, !tbaa !13
  %23 = icmp slt i32 %21, %22
  br i1 %23, label %24, label %69

24:                                               ; preds = %20
  %25 = load ptr, ptr %7, align 8, !tbaa !3
  %26 = load ptr, ptr %8, align 8, !tbaa !8
  %27 = load ptr, ptr %12, align 8, !tbaa !96
  %28 = load i32, ptr %13, align 4, !tbaa !13
  %29 = sext i32 %28 to i64
  %30 = getelementptr inbounds %struct.pmix_value, ptr %27, i64 %29
  %31 = getelementptr inbounds nuw %struct.pmix_value, ptr %30, i32 0, i32 0
  %32 = call i32 @pmix_bfrop_get_data_type(ptr noundef %25, ptr noundef %26, ptr noundef %31)
  store i32 %32, ptr %15, align 4, !tbaa !13
  %33 = icmp ne i32 0, %32
  br i1 %33, label %34, label %45

34:                                               ; preds = %24
  br label %35

35:                                               ; preds = %34
  %36 = load i32, ptr %15, align 4, !tbaa !13
  %37 = icmp ne i32 -2, %36
  br i1 %37, label %38, label %41

38:                                               ; preds = %35
  %39 = load i32, ptr %15, align 4, !tbaa !13
  %40 = call ptr @PMIx_Error_string(i32 noundef %39)
  call void (i32, ptr, ...) @pmix_output(i32 noundef 0, ptr noundef @.str.6, ptr noundef %40, ptr noundef @.str.7, i32 noundef 732)
  br label %41

41:                                               ; preds = %38, %35
  br label %42

42:                                               ; preds = %41
  br label %43

43:                                               ; preds = %42
  %44 = load i32, ptr %15, align 4, !tbaa !13
  store i32 %44, ptr %6, align 4
  store i32 1, ptr %16, align 4
  br label %70

45:                                               ; preds = %24
  %46 = load ptr, ptr %7, align 8, !tbaa !3
  %47 = load ptr, ptr %8, align 8, !tbaa !8
  %48 = load ptr, ptr %12, align 8, !tbaa !96
  %49 = load i32, ptr %13, align 4, !tbaa !13
  %50 = sext i32 %49 to i64
  %51 = getelementptr inbounds %struct.pmix_value, ptr %48, i64 %50
  %52 = call i32 @pmix_bfrops_base_unpack_val(ptr noundef %46, ptr noundef %47, ptr noundef %51)
  store i32 %52, ptr %15, align 4, !tbaa !13
  %53 = icmp ne i32 0, %52
  br i1 %53, label %54, label %65

54:                                               ; preds = %45
  br label %55

55:                                               ; preds = %54
  %56 = load i32, ptr %15, align 4, !tbaa !13
  %57 = icmp ne i32 -2, %56
  br i1 %57, label %58, label %61

58:                                               ; preds = %55
  %59 = load i32, ptr %15, align 4, !tbaa !13
  %60 = call ptr @PMIx_Error_string(i32 noundef %59)
  call void (i32, ptr, ...) @pmix_output(i32 noundef 0, ptr noundef @.str.6, ptr noundef %60, ptr noundef @.str.7, i32 noundef 737)
  br label %61

61:                                               ; preds = %58, %55
  br label %62

62:                                               ; preds = %61
  br label %63

63:                                               ; preds = %62
  %64 = load i32, ptr %15, align 4, !tbaa !13
  store i32 %64, ptr %6, align 4
  store i32 1, ptr %16, align 4
  br label %70

65:                                               ; preds = %45
  br label %66

66:                                               ; preds = %65
  %67 = load i32, ptr %13, align 4, !tbaa !13
  %68 = add nsw i32 %67, 1
  store i32 %68, ptr %13, align 4, !tbaa !13
  br label %20, !llvm.loop !100

69:                                               ; preds = %20
  store i32 0, ptr %6, align 4
  store i32 1, ptr %16, align 4
  br label %70

70:                                               ; preds = %69, %63, %43
  call void @llvm.lifetime.end.p0(i64 4, ptr %15) #11
  call void @llvm.lifetime.end.p0(i64 4, ptr %14) #11
  call void @llvm.lifetime.end.p0(i64 4, ptr %13) #11
  call void @llvm.lifetime.end.p0(i64 8, ptr %12) #11
  %71 = load i32, ptr %6, align 4
  ret i32 %71
}