; Function Attrs: nounwind uwtable
define noundef i32 @pmix_bfrops_base_unpack_value(ptr noundef %0, ptr noundef %1, ptr noundef %2, ptr noundef readonly captures(none) %3, i16 noundef zeroext %4) local_unnamed_addr #0 {
  %6 = load i32, ptr %3, align 4, !tbaa !3
  %7 = icmp sgt i32 %6, 0
  br i1 %7, label %.lr.ph.preheader, label %.loopexit

.lr.ph.preheader:                                 ; preds = %5
  %wide.trip.count = zext nneg i32 %6 to i64
  br label %.lr.ph

.lr.ph:                                           ; preds = %.lr.ph.preheader, %12
  %indvars.iv = phi i64 [ 0, %.lr.ph.preheader ], [ %indvars.iv.next, %12 ]
  %8 = getelementptr inbounds nuw %struct.pmix_value, ptr %2, i64 %indvars.iv
  %9 = tail call i32 @pmix_bfrop_get_data_type(ptr noundef %0, ptr noundef %1, ptr noundef %8) #10
  switch i32 %9, label %.loopexit.sink.split [
    i32 0, label %10
    i32 -2, label %.loopexit
  ]

10:                                               ; preds = %.lr.ph
  %11 = tail call i32 @pmix_bfrops_base_unpack_val(ptr noundef %0, ptr noundef %1, ptr noundef %8)
  switch i32 %11, label %.loopexit.sink.split [
    i32 0, label %12
    i32 -2, label %.loopexit
  ]

12:                                               ; preds = %10
  %indvars.iv.next = add nuw nsw i64 %indvars.iv, 1
  %exitcond.not = icmp eq i64 %indvars.iv.next, %wide.trip.count
  br i1 %exitcond.not, label %.loopexit, label %.lr.ph, !llvm.loop !71

.loopexit.sink.split:                             ; preds = %10, %.lr.ph
  %.lcssa.sink = phi i32 [ %9, %.lr.ph ], [ %11, %10 ]
  %.sink39 = phi i32 [ 732, %.lr.ph ], [ 737, %10 ]
  %13 = tail call ptr @PMIx_Error_string(i32 noundef %.lcssa.sink) #10
  tail call void (i32, ptr, ...) @pmix_output(i32 noundef 0, ptr noundef nonnull @.str.6, ptr noundef %13, ptr noundef nonnull @.str.7, i32 noundef %.sink39) #10
  br label %.loopexit

.loopexit:                                        ; preds = %.lr.ph, %10, %12, %.loopexit.sink.split, %5
  %.0 = phi i32 [ 0, %5 ], [ %.lcssa.sink, %.loopexit.sink.split ], [ %9, %.lr.ph ], [ %11, %10 ], [ 0, %12 ]
  ret i32 %.0
}